target datalayout = "e-m:e-p270:32:32-p271:32:32-p272:64:64-i64:64-i128:128-f80:128-n8:16:32:64-S128"
target triple = "x86_64-pc-linux-gnu"

%class.StringList = type { %class.Array, i64, i64, [16 x i64], i64 }
%class.Array = type { ptr, i64, i64, i64 }

; Function Attrs: mustprogress nounwind uwtable
define void @_ZN10StringList12SavePositionEv(ptr noundef nonnull align 8 dereferenceable(184) %0) #1 align 2 {
  %2 = alloca ptr, align 8
  store ptr %0, ptr %2, align 8
  %3 = load ptr, ptr %2, align 8
  %4 = getelementptr inbounds %class.StringList, ptr %3, i32 0, i32 4
  %5 = load i64, ptr %4, align 8
  %6 = icmp ult i64 %5, 16
  br i1 %6, label %7, label %17

7:                                                ; preds = %1
  %8 = getelementptr inbounds %class.StringList, ptr %3, i32 0, i32 1
  %9 = load i64, ptr %8, align 8
  %10 = getelementptr inbounds %class.StringList, ptr %3, i32 0, i32 3
  %11 = getelementptr inbounds %class.StringList, ptr %3, i32 0, i32 4
  %12 = load i64, ptr %11, align 8
  %13 = getelementptr inbounds [16 x i64], ptr %10, i64 0, i64 %12
  store i64 %9, ptr %13, align 8
  %14 = getelementptr inbounds %class.StringList, ptr %3, i32 0, i32 4
  %15 = load i64, ptr %14, align 8
  %16 = add i64 %15, 1
  store i64 %16, ptr %14, align 8
  br label %17

17:                                               ; preds = %7, %1
  ret void
}