; Function Attrs: mustprogress nofree norecurse nosync nounwind willreturn memory(argmem: readwrite) uwtable
define void @_ZN10StringList12SavePositionEv(ptr nocapture noundef nonnull align 8 dereferenceable(184) %0) local_unnamed_addr #7 align 2 {
  %2 = getelementptr inbounds i8, ptr %0, i64 176
  %3 = load i64, ptr %2, align 8
  %4 = icmp ult i64 %3, 16
  br i1 %4, label %5, label %12

5:                                                ; preds = %1
  %6 = getelementptr inbounds i8, ptr %0, i64 32
  %7 = load i64, ptr %6, align 8
  %8 = getelementptr inbounds i8, ptr %0, i64 48
  %9 = getelementptr inbounds [16 x i64], ptr %8, i64 0, i64 %3
  store i64 %7, ptr %9, align 8
  %10 = load i64, ptr %2, align 8
  %11 = add i64 %10, 1
  store i64 %11, ptr %2, align 8
  br label %12

12:                                               ; preds = %5, %1
  ret void
}